; Function Attrs: nounwind sspstrong uwtable
define dso_local i32 @virtio_bus_get_vdev_bad_features(ptr noundef readonly captures(none) %bus) local_unnamed_addr #0 {
entry:
  %0 = getelementptr i8, ptr %bus, i64 80
  %bus.val = load ptr, ptr %0, align 8
  %tobool.not.i = icmp eq ptr %bus.val, null
  br i1 %tobool.not.i, label %if.else, label %virtio_bus_get_device.exit

virtio_bus_get_device.exit:                       ; preds = %entry
  %child.i = getelementptr inbounds nuw i8, ptr %bus.val, i64 16
  %1 = load ptr, ptr %child.i, align 8
  %cmp.not = icmp eq ptr %1, null
  br i1 %cmp.not, label %if.else, label %if.end

if.else:                                          ; preds = %entry, %virtio_bus_get_device.exit
  tail call void @__assert_fail(ptr noundef nonnull @.str.3, ptr noundef nonnull @.str.1, i32 noundef 151, ptr noundef nonnull @__PRETTY_FUNCTION__.virtio_bus_get_vdev_bad_features) #6
  unreachable

if.end:                                           ; preds = %virtio_bus_get_device.exit
  %call.i = tail call ptr @object_get_class(ptr noundef nonnull %1) #5
  %call1.i = tail call ptr @object_class_dynamic_cast_assert(ptr noundef %call.i, ptr noundef nonnull @.str.13, ptr noundef nonnull @.str.14, i32 noundef 85, ptr noundef nonnull @__func__.VIRTIO_DEVICE_GET_CLASS) #5
  %bad_features = getelementptr inbounds nuw i8, ptr %call1.i, i64 200
  %2 = load ptr, ptr %bad_features, align 8
  %cmp2.not = icmp eq ptr %2, null
  br i1 %cmp2.not, label %return, label %if.then3

if.then3:                                         ; preds = %if.end
  %call5 = tail call i64 %2(ptr noundef nonnull %1) #5
  %conv = trunc i64 %call5 to i32
  br label %return

return:                                           ; preds = %if.end, %if.then3
  %retval.0 = phi i32 [ %conv, %if.then3 ], [ 0, %if.end ]
  ret i32 %retval.0
}